; Function Attrs: mustprogress nofree norecurse nosync nounwind willreturn memory(read, inaccessiblemem: none) uwtable
define hidden noundef i64 @_ZNK6Assimp17Q3BSPFileImporter14countTrianglesERKSt6vectorIPNS_5Q3BSP10sQ3BSPFaceESaIS4_EE(ptr noundef nonnull readnone align 8 captures(none) dereferenceable(160) %0, ptr noundef nonnull readonly align 8 captures(none) dereferenceable(24) %1) local_unnamed_addr #11 align 2 {
  %3 = load ptr, ptr %1, align 8
  %4 = getelementptr inbounds nuw i8, ptr %1, i64 8
  %5 = load ptr, ptr %4, align 8
  %.not910 = icmp eq ptr %3, %5
  br i1 %.not910, label %._crit_edge, label %.lr.ph

._crit_edge:                                      ; preds = %13, %2
  %.0.lcssa = phi i64 [ 0, %2 ], [ %.1, %13 ]
  ret i64 %.0.lcssa

.lr.ph:                                           ; preds = %2, %13
  %.012 = phi i64 [ %.1, %13 ], [ 0, %2 ]
  %.sroa.06.011 = phi ptr [ %14, %13 ], [ %3, %2 ]
  %6 = load ptr, ptr %.sroa.06.011, align 8
  %.not = icmp eq ptr %6, null
  br i1 %.not, label %13, label %7

7:                                                ; preds = %.lr.ph
  %8 = getelementptr inbounds nuw i8, ptr %6, i64 24
  %9 = load i32, ptr %8, align 4
  %10 = sdiv i32 %9, 3
  %11 = sext i32 %10 to i64
  %12 = add i64 %.012, %11
  br label %13

13:                                               ; preds = %7, %.lr.ph
  %.1 = phi i64 [ %12, %7 ], [ %.012, %.lr.ph ]
  %14 = getelementptr inbounds nuw i8, ptr %.sroa.06.011, i64 8
  %.not9 = icmp eq ptr %14, %5
  br i1 %.not9, label %._crit_edge, label %.lr.ph, !llvm.loop !38
}